target datalayout = "e-m:e-p270:32:32-p271:32:32-p272:64:64-i64:64-i128:128-f80:128-n8:16:32:64-S128"
target triple = "x86_64-pc-linux-gnu"

%struct.VVCLocalContext = type { i8, i8, i8, i8, i32, i32, [4 x i8], [3276800 x i8], [16384 x i16], [16384 x i16], [16384 x i16], [32768 x i8], [332800 x i8], [368640 x i8], [368640 x i8], [17424 x i32], %struct.anon, %struct.anon.0, ptr, [2 x [1024 x %struct.ReconstructedArea]], [2 x i32], %struct.NeighbourAvailable, i32, ptr, ptr, ptr, ptr }
%struct.anon = type { i32, i8, i32, i32, i32, [3 x i32], i32, i32, i32, i32, i32, i32 }
%struct.anon.0 = type { i32, i32, i32 }
%struct.ReconstructedArea = type { i32, i32, i32, i32 }
%struct.NeighbourAvailable = type { i32, i32, i32, i32, i32 }
%struct.PredWeightTable = type { [2 x i8], [2 x i8], [2 x [2 x [15 x i8]]], [2 x [3 x [15 x i16]]], [2 x [3 x [15 x i16]]] }
%struct.SliceContext = type { i32, %struct.VVCSH, ptr, i32, ptr, ptr }
%struct.VVCSH = type { ptr, i32, ptr, %struct.PredWeightTable, [2 x i8], i8, %struct.DBParams, [2 x i8], [2 x i8], [2 x i8], [2 x i8], i8, i8, [4050 x i32] }
%struct.DBParams = type { [3 x i8], [3 x i8] }

; Function Attrs: nounwind uwtable
define internal i32 @coding_tree_ttv(ptr noundef %0, i32 noundef %1, i32 noundef %2, i32 noundef %3, i32 noundef %4, i32 noundef %5, i32 noundef %6, i32 noundef %7, i32 noundef %8, i32 noundef %9, i32 noundef %10, i32 noundef %11, i32 noundef %12) #0 {
  %14 = alloca i32, align 4
  %15 = alloca ptr, align 8
  %16 = alloca i32, align 4
  %17 = alloca i32, align 4
  %18 = alloca i32, align 4
  %19 = alloca i32, align 4
  %20 = alloca i32, align 4
  %21 = alloca i32, align 4
  %22 = alloca i32, align 4
  %23 = alloca i32, align 4
  %24 = alloca i32, align 4
  %25 = alloca i32, align 4
  %26 = alloca i32, align 4
  %27 = alloca i32, align 4
  %28 = alloca ptr, align 8
  %29 = alloca i32, align 4
  %30 = alloca i32, align 4
  %31 = alloca i32, align 4
  %32 = alloca i32, align 4
  store ptr %0, ptr %15, align 8, !tbaa !4
  store i32 %1, ptr %16, align 4, !tbaa !9
  store i32 %2, ptr %17, align 4, !tbaa !9
  store i32 %3, ptr %18, align 4, !tbaa !9
  store i32 %4, ptr %19, align 4, !tbaa !9
  store i32 %5, ptr %20, align 4, !tbaa !9
  store i32 %6, ptr %21, align 4, !tbaa !9
  store i32 %7, ptr %22, align 4, !tbaa !9
  store i32 %8, ptr %23, align 4, !tbaa !9
  store i32 %9, ptr %24, align 4, !tbaa !9
  store i32 %10, ptr %25, align 4, !tbaa !9
  store i32 %11, ptr %26, align 4, !tbaa !9
  store i32 %12, ptr %27, align 4, !tbaa !9
  call void @llvm.lifetime.start.p0(i64 8, ptr %28) #7
  %33 = load ptr, ptr %15, align 8, !tbaa !4
  %34 = getelementptr inbounds nuw %struct.VVCLocalContext, ptr %33, i32 0, i32 23
  %35 = load ptr, ptr %34, align 16, !tbaa !89
  %36 = getelementptr inbounds nuw %struct.SliceContext, ptr %35, i32 0, i32 1
  store ptr %36, ptr %28, align 8, !tbaa !106
  call void @llvm.lifetime.start.p0(i64 4, ptr %29) #7
  %37 = load i32, ptr %16, align 4, !tbaa !9
  %38 = load i32, ptr %18, align 4, !tbaa !9
  %39 = sdiv i32 %38, 4
  %40 = add nsw i32 %37, %39
  store i32 %40, ptr %29, align 4, !tbaa !9
  call void @llvm.lifetime.start.p0(i64 4, ptr %30) #7
  %41 = load i32, ptr %16, align 4, !tbaa !9
  %42 = load i32, ptr %18, align 4, !tbaa !9
  %43 = mul nsw i32 %42, 3
  %44 = sdiv i32 %43, 4
  %45 = add nsw i32 %41, %44
  store i32 %45, ptr %30, align 4, !tbaa !9
  call void @llvm.lifetime.start.p0(i64 4, ptr %31) #7
  %46 = load i32, ptr %20, align 4, !tbaa !9
  %47 = icmp ne i32 %46, 0
  br i1 %47, label %48, label %56

48:                                               ; preds = %13
  %49 = load i32, ptr %22, align 4, !tbaa !9
  %50 = add nsw i32 %49, 2
  %51 = load ptr, ptr %28, align 8, !tbaa !106
  %52 = getelementptr inbounds nuw %struct.VVCSH, ptr %51, i32 0, i32 11
  %53 = load i8, ptr %52, align 1, !tbaa !201
  %54 = zext i8 %53 to i32
  %55 = icmp sle i32 %50, %54
  br label %56

56:                                               ; preds = %48, %13
  %57 = phi i1 [ false, %13 ], [ %55, %48 ]
  %58 = zext i1 %57 to i32
  store i32 %58, ptr %20, align 4, !tbaa !9
  %59 = load i32, ptr %21, align 4, !tbaa !9
  %60 = icmp ne i32 %59, 0
  br i1 %60, label %61, label %69

61:                                               ; preds = %56
  %62 = load i32, ptr %22, align 4, !tbaa !9
  %63 = add nsw i32 %62, 2
  %64 = load ptr, ptr %28, align 8, !tbaa !106
  %65 = getelementptr inbounds nuw %struct.VVCSH, ptr %64, i32 0, i32 12
  %66 = load i8, ptr %65, align 2, !tbaa !206
  %67 = zext i8 %66 to i32
  %68 = icmp sle i32 %63, %67
  br label %69

69:                                               ; preds = %61, %56
  %70 = phi i1 [ false, %56 ], [ %68, %61 ]
  %71 = zext i1 %70 to i32
  store i32 %71, ptr %21, align 4, !tbaa !9
  br label %72

72:                                               ; preds = %69
  %73 = load ptr, ptr %15, align 8, !tbaa !4
  %74 = load i32, ptr %16, align 4, !tbaa !9
  %75 = load i32, ptr %17, align 4, !tbaa !9
  %76 = load i32, ptr %18, align 4, !tbaa !9
  %77 = sdiv i32 %76, 4
  %78 = load i32, ptr %19, align 4, !tbaa !9
  %79 = load i32, ptr %20, align 4, !tbaa !9
  %80 = load i32, ptr %21, align 4, !tbaa !9
  %81 = load i32, ptr %22, align 4, !tbaa !9
  %82 = add nsw i32 %81, 2
  %83 = load i32, ptr %23, align 4, !tbaa !9
  %84 = load i32, ptr %24, align 4, !tbaa !9
  %85 = add nsw i32 %84, 1
  %86 = load i32, ptr %25, align 4, !tbaa !9
  %87 = load i32, ptr %26, align 4, !tbaa !9
  %88 = load i32, ptr %27, align 4, !tbaa !9
  %89 = call i32 @hls_coding_tree(ptr noundef %73, i32 noundef %74, i32 noundef %75, i32 noundef %77, i32 noundef %78, i32 noundef %79, i32 noundef %80, i32 noundef %82, i32 noundef %83, i32 noundef %85, i32 noundef %86, i32 noundef 0, i32 noundef 3, i32 noundef %87, i32 noundef %88)
  store i32 %89, ptr %31, align 4, !tbaa !9
  %90 = load i32, ptr %31, align 4, !tbaa !9
  %91 = icmp slt i32 %90, 0
  br i1 %91, label %92, label %94

92:                                               ; preds = %72
  %93 = load i32, ptr %31, align 4, !tbaa !9
  store i32 %93, ptr %14, align 4
  store i32 1, ptr %32, align 4
  br label %147

94:                                               ; preds = %72
  br label %95

95:                                               ; preds = %94
  br label %96

96:                                               ; preds = %95
  br label %97

97:                                               ; preds = %96
  %98 = load ptr, ptr %15, align 8, !tbaa !4
  %99 = load i32, ptr %29, align 4, !tbaa !9
  %100 = load i32, ptr %17, align 4, !tbaa !9
  %101 = load i32, ptr %18, align 4, !tbaa !9
  %102 = sdiv i32 %101, 2
  %103 = load i32, ptr %19, align 4, !tbaa !9
  %104 = load i32, ptr %20, align 4, !tbaa !9
  %105 = load i32, ptr %21, align 4, !tbaa !9
  %106 = load i32, ptr %22, align 4, !tbaa !9
  %107 = add nsw i32 %106, 1
  %108 = load i32, ptr %23, align 4, !tbaa !9
  %109 = load i32, ptr %24, align 4, !tbaa !9
  %110 = add nsw i32 %109, 1
  %111 = load i32, ptr %25, align 4, !tbaa !9
  %112 = load i32, ptr %26, align 4, !tbaa !9
  %113 = load i32, ptr %27, align 4, !tbaa !9
  %114 = call i32 @hls_coding_tree(ptr noundef %98, i32 noundef %99, i32 noundef %100, i32 noundef %102, i32 noundef %103, i32 noundef %104, i32 noundef %105, i32 noundef %107, i32 noundef %108, i32 noundef %110, i32 noundef %111, i32 noundef 1, i32 noundef 3, i32 noundef %112, i32 noundef %113)
  store i32 %114, ptr %31, align 4, !tbaa !9
  %115 = load i32, ptr %31, align 4, !tbaa !9
  %116 = icmp slt i32 %115, 0
  br i1 %116, label %117, label %119

117:                                              ; preds = %97
  %118 = load i32, ptr %31, align 4, !tbaa !9
  store i32 %118, ptr %14, align 4
  store i32 1, ptr %32, align 4
  br label %147

119:                                              ; preds = %97
  br label %120

120:                                              ; preds = %119
  br label %121

121:                                              ; preds = %120
  br label %122

122:                                              ; preds = %121
  %123 = load ptr, ptr %15, align 8, !tbaa !4
  %124 = load i32, ptr %30, align 4, !tbaa !9
  %125 = load i32, ptr %17, align 4, !tbaa !9
  %126 = load i32, ptr %18, align 4, !tbaa !9
  %127 = sdiv i32 %126, 4
  %128 = load i32, ptr %19, align 4, !tbaa !9
  %129 = load i32, ptr %20, align 4, !tbaa !9
  %130 = load i32, ptr %21, align 4, !tbaa !9
  %131 = load i32, ptr %22, align 4, !tbaa !9
  %132 = add nsw i32 %131, 2
  %133 = load i32, ptr %23, align 4, !tbaa !9
  %134 = load i32, ptr %24, align 4, !tbaa !9
  %135 = add nsw i32 %134, 1
  %136 = load i32, ptr %25, align 4, !tbaa !9
  %137 = load i32, ptr %26, align 4, !tbaa !9
  %138 = load i32, ptr %27, align 4, !tbaa !9
  %139 = call i32 @hls_coding_tree(ptr noundef %123, i32 noundef %124, i32 noundef %125, i32 noundef %127, i32 noundef %128, i32 noundef %129, i32 noundef %130, i32 noundef %132, i32 noundef %133, i32 noundef %135, i32 noundef %136, i32 noundef 2, i32 noundef 3, i32 noundef %137, i32 noundef %138)
  store i32 %139, ptr %31, align 4, !tbaa !9
  %140 = load i32, ptr %31, align 4, !tbaa !9
  %141 = icmp slt i32 %140, 0
  br i1 %141, label %142, label %144

142:                                              ; preds = %122
  %143 = load i32, ptr %31, align 4, !tbaa !9
  store i32 %143, ptr %14, align 4
  store i32 1, ptr %32, align 4
  br label %147

144:                                              ; preds = %122
  br label %145

145:                                              ; preds = %144
  br label %146

146:                                              ; preds = %145
  store i32 0, ptr %14, align 4
  store i32 1, ptr %32, align 4
  br label %147

147:                                              ; preds = %146, %142, %117, %92
  call void @llvm.lifetime.end.p0(i64 4, ptr %31) #7
  call void @llvm.lifetime.end.p0(i64 4, ptr %30) #7
  call void @llvm.lifetime.end.p0(i64 4, ptr %29) #7
  call void @llvm.lifetime.end.p0(i64 8, ptr %28) #7
  %148 = load i32, ptr %14, align 4
  ret i32 %148
}