; Function Attrs: nounwind uwtable
define internal range(i32 -2147483648, 1) i32 @coding_tree_ttv(ptr noundef %0, i32 noundef %1, i32 noundef %2, i32 noundef %3, i32 noundef %4, i32 noundef %5, i32 noundef %6, i32 noundef %7, i32 noundef %8, i32 noundef %9, i32 noundef %10, i32 noundef %11, i32 noundef %12) #0 {
  %14 = getelementptr inbounds nuw i8, ptr %0, i64 4580544
  %15 = load ptr, ptr %14, align 16, !tbaa !73
  %16 = sdiv i32 %3, 4
  %17 = add nsw i32 %16, %1
  %18 = mul nsw i32 %3, 3
  %19 = sdiv i32 %18, 4
  %20 = add nsw i32 %19, %1
  %.not = icmp eq i32 %5, 0
  br i1 %.not, label %28, label %21

21:                                               ; preds = %13
  %22 = add nsw i32 %7, 2
  %23 = getelementptr inbounds nuw i8, ptr %15, i64 473
  %24 = load i8, ptr %23, align 1, !tbaa !197
  %25 = zext i8 %24 to i32
  %26 = icmp sle i32 %22, %25
  %27 = zext i1 %26 to i32
  br label %28

28:                                               ; preds = %21, %13
  %29 = phi i32 [ 0, %13 ], [ %27, %21 ]
  %.not59 = icmp eq i32 %6, 0
  %.pre = add nsw i32 %7, 2
  br i1 %.not59, label %._crit_edge, label %30

30:                                               ; preds = %28
  %31 = getelementptr inbounds nuw i8, ptr %15, i64 474
  %32 = load i8, ptr %31, align 2, !tbaa !202
  %33 = zext i8 %32 to i32
  %34 = icmp sle i32 %.pre, %33
  %35 = zext i1 %34 to i32
  br label %._crit_edge

._crit_edge:                                      ; preds = %28, %30
  %36 = phi i32 [ %35, %30 ], [ 0, %28 ]
  %37 = add nsw i32 %9, 1
  %38 = tail call fastcc i32 @hls_coding_tree(ptr noundef nonnull %0, i32 noundef %1, i32 noundef %2, i32 noundef %16, i32 noundef %4, i32 noundef %29, i32 noundef %36, i32 noundef %.pre, i32 noundef %8, i32 noundef %37, i32 noundef %10, i32 noundef 0, i32 noundef 3, i32 noundef %11, i32 noundef %12)
  %39 = icmp slt i32 %38, 0
  br i1 %39, label %47, label %40

40:                                               ; preds = %._crit_edge
  %41 = sdiv i32 %3, 2
  %42 = add nsw i32 %7, 1
  %43 = tail call fastcc i32 @hls_coding_tree(ptr noundef nonnull %0, i32 noundef %17, i32 noundef %2, i32 noundef %41, i32 noundef %4, i32 noundef %29, i32 noundef %36, i32 noundef %42, i32 noundef %8, i32 noundef %37, i32 noundef %10, i32 noundef 1, i32 noundef 3, i32 noundef %11, i32 noundef %12)
  %44 = icmp slt i32 %43, 0
  br i1 %44, label %47, label %45

45:                                               ; preds = %40
  %46 = tail call fastcc i32 @hls_coding_tree(ptr noundef nonnull %0, i32 noundef %20, i32 noundef %2, i32 noundef %16, i32 noundef %4, i32 noundef %29, i32 noundef %36, i32 noundef %.pre, i32 noundef %8, i32 noundef %37, i32 noundef %10, i32 noundef 2, i32 noundef 3, i32 noundef %11, i32 noundef %12)
  br label %47

47:                                               ; preds = %45, %40, %._crit_edge
  %.0 = phi i32 [ %38, %._crit_edge ], [ %43, %40 ], [ %46, %45 ]
  ret i32 %.0
}